; Function Attrs: mustprogress nounwind uwtable
define hidden noundef zeroext i1 @_ZN8ciMethod15can_be_compiledEv(ptr nocapture noundef nonnull readonly align 8 dereferenceable(160) %0) local_unnamed_addr #0 align 2 {
  %2 = tail call align 8 ptr @llvm.threadlocal.address.p0(ptr align 8 @_ZN6Thread12_thr_currentE)
  %3 = load ptr, ptr %2, align 8
  %4 = getelementptr inbounds i8, ptr %3, i64 1808
  %5 = load ptr, ptr %4, align 8
  %6 = tail call noundef i32 @_ZN5ciEnv10comp_levelEv(ptr noundef nonnull align 8 dereferenceable(1265) %5) #14
  %7 = add i32 %6, -1
  %8 = icmp ult i32 %7, 3
  %.0.in.in.v = select i1 %8, i64 110, i64 111
  %.0.in.in = getelementptr inbounds i8, ptr %0, i64 %.0.in.in.v
  %.0.in = load i8, ptr %.0.in.in, align 1
  %.0 = trunc i8 %.0.in to i1
  ret i1 %.0
}